target datalayout = "e-m:e-p270:32:32-p271:32:32-p272:64:64-i64:64-i128:128-f80:128-n8:16:32:64-S128"
target triple = "x86_64-pc-linux-gnu"

%struct.pmix_lock_t = type { i32, %struct.pmix_mutex_t, %union.pthread_cond_t, i8 }
%struct.pmix_mutex_t = type { %struct.pmix_object_t, %union.pthread_mutex_t }
%struct.pmix_object_t = type { %union.pthread_mutex_t, ptr, i32, %struct.pmix_tma }
%struct.pmix_tma = type { ptr, ptr, ptr, ptr, ptr, ptr, ptr, ptr }
%union.pthread_mutex_t = type { %struct.__pthread_mutex_s }
%struct.__pthread_mutex_s = type { i32, i32, i32, i32, i32, i16, i16, %struct.__pthread_internal_list }
%struct.__pthread_internal_list = type { ptr, ptr }
%union.pthread_cond_t = type { %struct.__pthread_cond_s }
%struct.__pthread_cond_s = type { %union.__atomic_wide_counter, %union.__atomic_wide_counter, [2 x i32], [2 x i32], i32, i32, [2 x i32] }
%union.__atomic_wide_counter = type { i64 }
%struct.pmix_class_t = type { ptr, ptr, ptr, ptr, i32, i32, ptr, ptr, i64 }
%struct.pmix_mycount_t = type { %struct.pmix_object_t, %struct.pmix_lock_t, i64, i32, ptr, ptr }

@.str.6 = private unnamed_addr constant [21 x i8] c"pthread_mutex_lock()\00", align 1

; Function Attrs: inlinehint nounwind uwtable
define internal void @pmix_tma_free(ptr noundef %0, ptr noundef %1) #2 {
  %3 = alloca ptr, align 8
  %4 = alloca ptr, align 8
  store ptr %0, ptr %3, align 8, !tbaa !85
  store ptr %1, ptr %4, align 8, !tbaa !12
  %5 = load ptr, ptr %3, align 8, !tbaa !85
  %6 = icmp ne ptr null, %5
  br i1 %6, label %7, label %13

7:                                                ; preds = %2
  %8 = load ptr, ptr %3, align 8, !tbaa !85
  %9 = getelementptr inbounds nuw %struct.pmix_tma, ptr %8, i32 0, i32 5
  %10 = load ptr, ptr %9, align 8, !tbaa !109
  %11 = load ptr, ptr %3, align 8, !tbaa !85
  %12 = load ptr, ptr %4, align 8, !tbaa !12
  call void %10(ptr noundef %11, ptr noundef %12)
  br label %15

13:                                               ; preds = %2
  %14 = load ptr, ptr %4, align 8, !tbaa !12
  call void @free(ptr noundef %14) #12
  br label %15

15:                                               ; preds = %13, %7
  ret void
}

; Function Attrs: inlinehint nounwind uwtable
define internal void @pmix_obj_run_destructors(ptr noundef %0) #2 {
  %2 = alloca ptr, align 8
  %3 = alloca ptr, align 8
  store ptr %0, ptr %2, align 8, !tbaa !72
  call void @llvm.lifetime.start.p0(i64 8, ptr %3) #12
  %4 = load ptr, ptr %2, align 8, !tbaa !72
  %5 = getelementptr inbounds nuw %struct.pmix_object_t, ptr %4, i32 0, i32 1
  %6 = load ptr, ptr %5, align 8, !tbaa !47
  %7 = getelementptr inbounds nuw %struct.pmix_class_t, ptr %6, i32 0, i32 7
  %8 = load ptr, ptr %7, align 8, !tbaa !107
  store ptr %8, ptr %3, align 8, !tbaa !12
  br label %9

9:                                                ; preds = %13, %1
  %10 = load ptr, ptr %3, align 8, !tbaa !12
  %11 = load ptr, ptr %10, align 8, !tbaa !12
  %12 = icmp ne ptr null, %11
  br i1 %12, label %13, label %19

13:                                               ; preds = %9
  %14 = load ptr, ptr %3, align 8, !tbaa !12
  %15 = load ptr, ptr %14, align 8, !tbaa !12
  %16 = load ptr, ptr %2, align 8, !tbaa !72
  call void %15(ptr noundef %16)
  %17 = load ptr, ptr %3, align 8, !tbaa !12
  %18 = getelementptr inbounds nuw ptr, ptr %17, i32 1
  store ptr %18, ptr %3, align 8, !tbaa !12
  br label %9, !llvm.loop !108

19:                                               ; preds = %9
  call void @llvm.lifetime.end.p0(i64 8, ptr %3) #12
  ret void
}

; Function Attrs: alwaysinline nounwind uwtable
define internal i32 @pmix_obj_update(ptr noundef %0, i32 noundef %1) #6 {
  %3 = alloca ptr, align 8
  %4 = alloca i32, align 4
  %5 = alloca i32, align 4
  store ptr %0, ptr %3, align 8, !tbaa !72
  store i32 %1, ptr %4, align 4, !tbaa !13
  call void @llvm.lifetime.start.p0(i64 4, ptr %5) #12
  %6 = load ptr, ptr %3, align 8, !tbaa !72
  %7 = getelementptr inbounds nuw %struct.pmix_object_t, ptr %6, i32 0, i32 0
  %8 = call i32 @pthread_mutex_lock(ptr noundef %7) #12
  store i32 %8, ptr %5, align 4, !tbaa !13
  %9 = load i32, ptr %5, align 4, !tbaa !13
  %10 = icmp eq i32 %9, 35
  br i1 %10, label %11, label %14

11:                                               ; preds = %2
  %12 = load i32, ptr %5, align 4, !tbaa !13
  %13 = call ptr @__errno_location() #14
  store i32 %12, ptr %13, align 4, !tbaa !13
  call void @perror(ptr noundef @.str.6)
  call void @abort() #15
  unreachable

14:                                               ; preds = %2
  %15 = load i32, ptr %4, align 4, !tbaa !13
  %16 = load ptr, ptr %3, align 8, !tbaa !72
  %17 = getelementptr inbounds nuw %struct.pmix_object_t, ptr %16, i32 0, i32 2
  %18 = load i32, ptr %17, align 8, !tbaa !48
  %19 = add nsw i32 %18, %15
  store i32 %19, ptr %17, align 8, !tbaa !48
  store i32 %19, ptr %5, align 4, !tbaa !13
  %20 = load ptr, ptr %3, align 8, !tbaa !72
  %21 = getelementptr inbounds nuw %struct.pmix_object_t, ptr %20, i32 0, i32 0
  %22 = call i32 @pthread_mutex_unlock(ptr noundef %21) #12
  %23 = load i32, ptr %5, align 4, !tbaa !13
  call void @llvm.lifetime.end.p0(i64 4, ptr %5) #12
  ret i32 %23
}

; Function Attrs: inlinehint nounwind uwtable
define internal void @pmix_mutex_unlock(ptr noundef %0) #2 {
  %2 = alloca ptr, align 8
  store ptr %0, ptr %2, align 8, !tbaa !82
  %3 = load ptr, ptr %2, align 8, !tbaa !82
  %4 = getelementptr inbounds nuw %struct.pmix_mutex_t, ptr %3, i32 0, i32 1
  %5 = call i32 @pthread_mutex_unlock(ptr noundef %4) #12
  ret void
}

; Function Attrs: inlinehint nounwind uwtable
define internal void @pmix_atomic_wmb() #2 {
  fence release
  ret void
}

; Function Attrs: inlinehint nounwind uwtable
define internal void @pmix_atomic_rmb() #2 {
  fence acquire
  ret void
}

; Function Attrs: inlinehint nounwind uwtable
define internal void @pmix_mutex_lock(ptr noundef %0) #2 {
  %2 = alloca ptr, align 8
  store ptr %0, ptr %2, align 8, !tbaa !82
  %3 = load ptr, ptr %2, align 8, !tbaa !82
  %4 = getelementptr inbounds nuw %struct.pmix_mutex_t, ptr %3, i32 0, i32 1
  %5 = call i32 @pthread_mutex_lock(ptr noundef %4) #12
  ret void
}

; Function Attrs: nounwind uwtable
define internal void @localcbfunc(i32 noundef %0, ptr noundef %1) #0 {
  %3 = alloca i32, align 4
  %4 = alloca ptr, align 8
  %5 = alloca ptr, align 8
  %6 = alloca ptr, align 8
  %7 = alloca i32, align 4
  store i32 %0, ptr %3, align 4, !tbaa !13
  store ptr %1, ptr %4, align 8, !tbaa !12
  call void @llvm.lifetime.start.p0(i64 8, ptr %5) #12
  %8 = load ptr, ptr %4, align 8, !tbaa !12
  store ptr %8, ptr %5, align 8, !tbaa !12
  br label %9

9:                                                ; preds = %2
  %10 = load ptr, ptr %5, align 8, !tbaa !12
  %11 = getelementptr inbounds nuw %struct.pmix_mycount_t, ptr %10, i32 0, i32 1
  %12 = getelementptr inbounds nuw %struct.pmix_lock_t, ptr %11, i32 0, i32 1
  call void @pmix_mutex_lock(ptr noundef %12)
  br label %13

13:                                               ; preds = %19, %9
  %14 = load ptr, ptr %5, align 8, !tbaa !12
  %15 = getelementptr inbounds nuw %struct.pmix_mycount_t, ptr %14, i32 0, i32 1
  %16 = getelementptr inbounds nuw %struct.pmix_lock_t, ptr %15, i32 0, i32 3
  %17 = load volatile i8, ptr %16, align 8, !tbaa !75, !range !29, !noundef !30
  %18 = trunc i8 %17 to i1
  br i1 %18, label %19, label %28

19:                                               ; preds = %13
  %20 = load ptr, ptr %5, align 8, !tbaa !12
  %21 = getelementptr inbounds nuw %struct.pmix_mycount_t, ptr %20, i32 0, i32 1
  %22 = getelementptr inbounds nuw %struct.pmix_lock_t, ptr %21, i32 0, i32 2
  %23 = load ptr, ptr %5, align 8, !tbaa !12
  %24 = getelementptr inbounds nuw %struct.pmix_mycount_t, ptr %23, i32 0, i32 1
  %25 = getelementptr inbounds nuw %struct.pmix_lock_t, ptr %24, i32 0, i32 1
  %26 = getelementptr inbounds nuw %struct.pmix_mutex_t, ptr %25, i32 0, i32 1
  %27 = call i32 @pthread_cond_wait(ptr noundef %22, ptr noundef %26)
  br label %13, !llvm.loop !110

28:                                               ; preds = %13
  call void @pmix_atomic_rmb()
  %29 = load ptr, ptr %5, align 8, !tbaa !12
  %30 = getelementptr inbounds nuw %struct.pmix_mycount_t, ptr %29, i32 0, i32 1
  %31 = getelementptr inbounds nuw %struct.pmix_lock_t, ptr %30, i32 0, i32 3
  store volatile i8 1, ptr %31, align 8, !tbaa !75
  br label %32

32:                                               ; preds = %28
  br label %33

33:                                               ; preds = %32
  %34 = load ptr, ptr %5, align 8, !tbaa !12
  %35 = getelementptr inbounds nuw %struct.pmix_mycount_t, ptr %34, i32 0, i32 2
  %36 = load i64, ptr %35, align 8, !tbaa !78
  %37 = add i64 %36, -1
  store i64 %37, ptr %35, align 8, !tbaa !78
  %38 = load i32, ptr %3, align 4, !tbaa !13
  %39 = icmp ne i32 0, %38
  br i1 %39, label %40, label %49

40:                                               ; preds = %33
  %41 = load ptr, ptr %5, align 8, !tbaa !12
  %42 = getelementptr inbounds nuw %struct.pmix_mycount_t, ptr %41, i32 0, i32 3
  %43 = load i32, ptr %42, align 8, !tbaa !79
  %44 = icmp eq i32 0, %43
  br i1 %44, label %45, label %49

45:                                               ; preds = %40
  %46 = load i32, ptr %3, align 4, !tbaa !13
  %47 = load ptr, ptr %5, align 8, !tbaa !12
  %48 = getelementptr inbounds nuw %struct.pmix_mycount_t, ptr %47, i32 0, i32 3
  store i32 %46, ptr %48, align 8, !tbaa !79
  br label %49

49:                                               ; preds = %45, %40, %33
  %50 = load ptr, ptr %5, align 8, !tbaa !12
  %51 = getelementptr inbounds nuw %struct.pmix_mycount_t, ptr %50, i32 0, i32 2
  %52 = load i64, ptr %51, align 8, !tbaa !78
  %53 = icmp eq i64 0, %52
  br i1 %53, label %54, label %105

54:                                               ; preds = %49
  %55 = load ptr, ptr %5, align 8, !tbaa !12
  %56 = getelementptr inbounds nuw %struct.pmix_mycount_t, ptr %55, i32 0, i32 4
  %57 = load ptr, ptr %56, align 8, !tbaa !42
  %58 = icmp ne ptr null, %57
  br i1 %58, label %59, label %69

59:                                               ; preds = %54
  %60 = load ptr, ptr %5, align 8, !tbaa !12
  %61 = getelementptr inbounds nuw %struct.pmix_mycount_t, ptr %60, i32 0, i32 4
  %62 = load ptr, ptr %61, align 8, !tbaa !42
  %63 = load ptr, ptr %5, align 8, !tbaa !12
  %64 = getelementptr inbounds nuw %struct.pmix_mycount_t, ptr %63, i32 0, i32 3
  %65 = load i32, ptr %64, align 8, !tbaa !79
  %66 = load ptr, ptr %5, align 8, !tbaa !12
  %67 = getelementptr inbounds nuw %struct.pmix_mycount_t, ptr %66, i32 0, i32 5
  %68 = load ptr, ptr %67, align 8, !tbaa !44
  call void %62(i32 noundef %65, ptr noundef %68)
  br label %69

69:                                               ; preds = %59, %54
  br label %70

70:                                               ; preds = %69
  %71 = load ptr, ptr %5, align 8, !tbaa !12
  %72 = getelementptr inbounds nuw %struct.pmix_mycount_t, ptr %71, i32 0, i32 1
  %73 = getelementptr inbounds nuw %struct.pmix_lock_t, ptr %72, i32 0, i32 3
  store volatile i8 0, ptr %73, align 8, !tbaa !75
  call void @pmix_atomic_wmb()
  %74 = load ptr, ptr %5, align 8, !tbaa !12
  %75 = getelementptr inbounds nuw %struct.pmix_mycount_t, ptr %74, i32 0, i32 1
  %76 = getelementptr inbounds nuw %struct.pmix_lock_t, ptr %75, i32 0, i32 2
  %77 = call i32 @pthread_cond_broadcast(ptr noundef %76) #12
  %78 = load ptr, ptr %5, align 8, !tbaa !12
  %79 = getelementptr inbounds nuw %struct.pmix_mycount_t, ptr %78, i32 0, i32 1
  %80 = getelementptr inbounds nuw %struct.pmix_lock_t, ptr %79, i32 0, i32 1
  call void @pmix_mutex_unlock(ptr noundef %80)
  br label %81

81:                                               ; preds = %70
  br label %82

82:                                               ; preds = %81
  br label %83

83:                                               ; preds = %82
  call void @llvm.lifetime.start.p0(i64 8, ptr %6) #12
  %84 = load ptr, ptr %5, align 8, !tbaa !12
  store ptr %84, ptr %6, align 8, !tbaa !72
  %85 = load ptr, ptr %6, align 8, !tbaa !72
  %86 = call i32 @pmix_obj_update(ptr noundef %85, i32 noundef -1)
  %87 = icmp eq i32 0, %86
  br i1 %87, label %88, label %102

88:                                               ; preds = %83
  %89 = load ptr, ptr %6, align 8, !tbaa !72
  call void @pmix_obj_run_destructors(ptr noundef %89)
  %90 = load ptr, ptr %6, align 8, !tbaa !72
  %91 = getelementptr inbounds nuw %struct.pmix_object_t, ptr %90, i32 0, i32 3
  %92 = getelementptr inbounds nuw %struct.pmix_tma, ptr %91, i32 0, i32 5
  %93 = load ptr, ptr %92, align 8, !tbaa !74
  %94 = icmp ne ptr null, %93
  br i1 %94, label %95, label %99

95:                                               ; preds = %88
  %96 = load ptr, ptr %6, align 8, !tbaa !72
  %97 = getelementptr inbounds nuw %struct.pmix_object_t, ptr %96, i32 0, i32 3
  %98 = load ptr, ptr %5, align 8, !tbaa !12
  call void @pmix_tma_free(ptr noundef %97, ptr noundef %98)
  br label %101

99:                                               ; preds = %88
  %100 = load ptr, ptr %5, align 8, !tbaa !12
  call void @free(ptr noundef %100) #12
  br label %101

101:                                              ; preds = %99, %95
  store ptr null, ptr %5, align 8, !tbaa !12
  br label %102

102:                                              ; preds = %101, %83
  call void @llvm.lifetime.end.p0(i64 8, ptr %6) #12
  br label %103

103:                                              ; preds = %102
  br label %104

104:                                              ; preds = %103
  store i32 1, ptr %7, align 4
  br label %119

105:                                              ; preds = %49
  br label %106

106:                                              ; preds = %105
  %107 = load ptr, ptr %5, align 8, !tbaa !12
  %108 = getelementptr inbounds nuw %struct.pmix_mycount_t, ptr %107, i32 0, i32 1
  %109 = getelementptr inbounds nuw %struct.pmix_lock_t, ptr %108, i32 0, i32 3
  store volatile i8 0, ptr %109, align 8, !tbaa !75
  call void @pmix_atomic_wmb()
  %110 = load ptr, ptr %5, align 8, !tbaa !12
  %111 = getelementptr inbounds nuw %struct.pmix_mycount_t, ptr %110, i32 0, i32 1
  %112 = getelementptr inbounds nuw %struct.pmix_lock_t, ptr %111, i32 0, i32 2
  %113 = call i32 @pthread_cond_broadcast(ptr noundef %112) #12
  %114 = load ptr, ptr %5, align 8, !tbaa !12
  %115 = getelementptr inbounds nuw %struct.pmix_mycount_t, ptr %114, i32 0, i32 1
  %116 = getelementptr inbounds nuw %struct.pmix_lock_t, ptr %115, i32 0, i32 1
  call void @pmix_mutex_unlock(ptr noundef %116)
  br label %117

117:                                              ; preds = %106
  br label %118

118:                                              ; preds = %117
  store i32 0, ptr %7, align 4
  br label %119

119:                                              ; preds = %118, %104
  call void @llvm.lifetime.end.p0(i64 8, ptr %5) #12
  %120 = load i32, ptr %7, align 4
  switch i32 %120, label %122 [
    i32 0, label %121
    i32 1, label %121
  ]

121:                                              ; preds = %119, %119
  ret void

122:                                              ; preds = %119
  unreachable
}