; Function Attrs: nounwind uwtable
define internal void @localcbfunc(i32 noundef %0, ptr noundef %1) #0 {
  %3 = getelementptr inbounds nuw i8, ptr %1, i64 248
  %4 = tail call i32 @pthread_mutex_lock(ptr noundef nonnull %3) #11
  %5 = getelementptr inbounds nuw i8, ptr %1, i64 336
  %6 = load volatile i8, ptr %5, align 8, !tbaa !71, !range !18, !noundef !19
  %7 = trunc nuw i8 %6 to i1
  br i1 %7, label %.lr.ph, label %._crit_edge

.lr.ph:                                           ; preds = %2
  %8 = getelementptr inbounds nuw i8, ptr %1, i64 288
  br label %9

9:                                                ; preds = %.lr.ph, %9
  %10 = tail call i32 @pthread_cond_wait(ptr noundef nonnull %8, ptr noundef nonnull %3) #11
  %11 = load volatile i8, ptr %5, align 8, !tbaa !71, !range !18, !noundef !19
  %12 = trunc nuw i8 %11 to i1
  br i1 %12, label %9, label %._crit_edge, !llvm.loop !78

._crit_edge:                                      ; preds = %9, %2
  fence acquire
  store volatile i8 1, ptr %5, align 8, !tbaa !71
  %13 = getelementptr inbounds nuw i8, ptr %1, i64 344
  %14 = load i64, ptr %13, align 8, !tbaa !74
  %15 = add i64 %14, -1
  store i64 %15, ptr %13, align 8, !tbaa !74
  %.not = icmp eq i32 %0, 0
  br i1 %.not, label %21, label %16

16:                                               ; preds = %._crit_edge
  %17 = getelementptr inbounds nuw i8, ptr %1, i64 352
  %18 = load i32, ptr %17, align 8, !tbaa !75
  %19 = icmp eq i32 %18, 0
  br i1 %19, label %20, label %21

20:                                               ; preds = %16
  store i32 %0, ptr %17, align 8, !tbaa !75
  br label %21

21:                                               ; preds = %20, %16, %._crit_edge
  %22 = icmp eq i64 %15, 0
  br i1 %22, label %23, label %58

23:                                               ; preds = %21
  %24 = getelementptr inbounds nuw i8, ptr %1, i64 360
  %25 = load ptr, ptr %24, align 8, !tbaa !42
  %.not29 = icmp eq ptr %25, null
  br i1 %.not29, label %31, label %26

26:                                               ; preds = %23
  %27 = getelementptr inbounds nuw i8, ptr %1, i64 352
  %28 = load i32, ptr %27, align 8, !tbaa !75
  %29 = getelementptr inbounds nuw i8, ptr %1, i64 368
  %30 = load ptr, ptr %29, align 8, !tbaa !44
  tail call void %25(i32 noundef %28, ptr noundef %30) #11
  br label %31

31:                                               ; preds = %23, %26
  store volatile i8 0, ptr %5, align 8, !tbaa !71
  fence release
  %32 = getelementptr inbounds nuw i8, ptr %1, i64 288
  %33 = tail call i32 @pthread_cond_broadcast(ptr noundef nonnull %32) #11
  %34 = tail call i32 @pthread_mutex_unlock(ptr noundef nonnull %3) #11
  %35 = tail call i32 @pthread_mutex_lock(ptr noundef nonnull %1) #11
  %36 = icmp eq i32 %35, 35
  br i1 %36, label %37, label %pmix_obj_update.exit

37:                                               ; preds = %31
  %38 = tail call ptr @__errno_location() #14
  store i32 35, ptr %38, align 4, !tbaa !35
  tail call void @perror(ptr noundef nonnull @.str.6) #15
  tail call void @abort() #16
  unreachable

pmix_obj_update.exit:                             ; preds = %31
  %39 = getelementptr inbounds nuw i8, ptr %1, i64 48
  %40 = load i32, ptr %39, align 8, !tbaa !38
  %41 = add nsw i32 %40, -1
  store i32 %41, ptr %39, align 8, !tbaa !38
  %42 = tail call i32 @pthread_mutex_unlock(ptr noundef nonnull %1) #11
  %43 = icmp eq i32 %41, 0
  br i1 %43, label %44, label %62

44:                                               ; preds = %pmix_obj_update.exit
  %45 = getelementptr inbounds nuw i8, ptr %1, i64 40
  %46 = load ptr, ptr %45, align 8, !tbaa !37
  %47 = getelementptr inbounds nuw i8, ptr %46, i64 48
  %48 = load ptr, ptr %47, align 8, !tbaa !68
  %49 = load ptr, ptr %48, align 8, !tbaa !40
  %.not6.i = icmp eq ptr %49, null
  br i1 %.not6.i, label %pmix_obj_run_destructors.exit, label %.lr.ph.i

.lr.ph.i:                                         ; preds = %44, %.lr.ph.i
  %50 = phi ptr [ %52, %.lr.ph.i ], [ %49, %44 ]
  %.07.i = phi ptr [ %51, %.lr.ph.i ], [ %48, %44 ]
  tail call void %50(ptr noundef nonnull %1) #11
  %51 = getelementptr inbounds nuw i8, ptr %.07.i, i64 8
  %52 = load ptr, ptr %51, align 8, !tbaa !40
  %.not.i = icmp eq ptr %52, null
  br i1 %.not.i, label %pmix_obj_run_destructors.exit, label %.lr.ph.i, !llvm.loop !69

pmix_obj_run_destructors.exit:                    ; preds = %.lr.ph.i, %44
  %53 = getelementptr inbounds nuw i8, ptr %1, i64 96
  %54 = load ptr, ptr %53, align 8, !tbaa !70
  %.not30 = icmp eq ptr %54, null
  br i1 %.not30, label %57, label %55

55:                                               ; preds = %pmix_obj_run_destructors.exit
  %56 = getelementptr inbounds nuw i8, ptr %1, i64 56
  tail call void %54(ptr noundef nonnull %56, ptr noundef nonnull %1) #11
  br label %62

57:                                               ; preds = %pmix_obj_run_destructors.exit
  tail call void @free(ptr noundef nonnull %1) #11
  br label %62

58:                                               ; preds = %21
  store volatile i8 0, ptr %5, align 8, !tbaa !71
  fence release
  %59 = getelementptr inbounds nuw i8, ptr %1, i64 288
  %60 = tail call i32 @pthread_cond_broadcast(ptr noundef nonnull %59) #11
  %61 = tail call i32 @pthread_mutex_unlock(ptr noundef nonnull %3) #11
  br label %62

62:                                               ; preds = %pmix_obj_update.exit, %57, %55, %58
  ret void
}